target datalayout = "e-m:e-p270:32:32-p271:32:32-p272:64:64-i64:64-i128:128-f80:128-n8:16:32:64-S128"
target triple = "x86_64-pc-linux-gnu"

%struct.epan_column_info = type { ptr, i32, ptr, ptr, ptr, %struct.col_expr_t, i8, ptr }
%struct.col_expr_t = type { ptr, ptr }
%struct.col_item_t = type { i32, ptr, ptr, ptr, i32, ptr, ptr, ptr, ptr, i32, i8, i32 }

; Function Attrs: mustprogress nounwind null_pointer_is_valid sspstrong uwtable
define noundef zeroext i1 @_ZN18AddressEditorFrame15isAddressColumnEP16epan_column_infoi(ptr noundef align 8 dereferenceable_or_null(72) %0, ptr noundef %1, i32 noundef %2) #4 align 2 {
  %4 = alloca i1, align 1
  %5 = alloca ptr, align 8
  %6 = alloca ptr, align 8
  %7 = alloca i32, align 4
  store ptr %0, ptr %5, align 8
  store ptr %1, ptr %6, align 8
  store i32 %2, ptr %7, align 4
  %8 = load ptr, ptr %6, align 8
  %9 = icmp ne ptr %8, null
  br i1 %9, label %10, label %19

10:                                               ; preds = %3
  %11 = load i32, ptr %7, align 4
  %12 = icmp slt i32 %11, 0
  br i1 %12, label %19, label %13

13:                                               ; preds = %10
  %14 = load i32, ptr %7, align 4
  %15 = load ptr, ptr %6, align 8
  %16 = getelementptr inbounds nuw %struct.epan_column_info, ptr %15, i32 0, i32 1
  %17 = load i32, ptr %16, align 8
  %18 = icmp sge i32 %14, %17
  br i1 %18, label %19, label %20

19:                                               ; preds = %13, %10, %3
  store i1 false, ptr %4, align 1
  br label %174

20:                                               ; preds = %13
  %21 = load ptr, ptr %6, align 8
  %22 = getelementptr inbounds nuw %struct.epan_column_info, ptr %21, i32 0, i32 2
  %23 = load ptr, ptr %22, align 8
  %24 = load i32, ptr %7, align 4
  %25 = sext i32 %24 to i64
  %26 = getelementptr %struct.col_item_t, ptr %23, i64 %25
  %27 = getelementptr inbounds nuw %struct.col_item_t, ptr %26, i32 0, i32 0
  %28 = load i32, ptr %27, align 8
  %29 = icmp eq i32 %28, 37
  br i1 %29, label %140, label %30

30:                                               ; preds = %20
  %31 = load ptr, ptr %6, align 8
  %32 = getelementptr inbounds nuw %struct.epan_column_info, ptr %31, i32 0, i32 2
  %33 = load ptr, ptr %32, align 8
  %34 = load i32, ptr %7, align 4
  %35 = sext i32 %34 to i64
  %36 = getelementptr %struct.col_item_t, ptr %33, i64 %35
  %37 = getelementptr inbounds nuw %struct.col_item_t, ptr %36, i32 0, i32 0
  %38 = load i32, ptr %37, align 8
  %39 = icmp eq i32 %38, 39
  br i1 %39, label %140, label %40

40:                                               ; preds = %30
  %41 = load ptr, ptr %6, align 8
  %42 = getelementptr inbounds nuw %struct.epan_column_info, ptr %41, i32 0, i32 2
  %43 = load ptr, ptr %42, align 8
  %44 = load i32, ptr %7, align 4
  %45 = sext i32 %44 to i64
  %46 = getelementptr %struct.col_item_t, ptr %43, i64 %45
  %47 = getelementptr inbounds nuw %struct.col_item_t, ptr %46, i32 0, i32 0
  %48 = load i32, ptr %47, align 8
  %49 = icmp eq i32 %48, 40
  br i1 %49, label %140, label %50

50:                                               ; preds = %40
  %51 = load ptr, ptr %6, align 8
  %52 = getelementptr inbounds nuw %struct.epan_column_info, ptr %51, i32 0, i32 2
  %53 = load ptr, ptr %52, align 8
  %54 = load i32, ptr %7, align 4
  %55 = sext i32 %54 to i64
  %56 = getelementptr %struct.col_item_t, ptr %53, i64 %55
  %57 = getelementptr inbounds nuw %struct.col_item_t, ptr %56, i32 0, i32 0
  %58 = load i32, ptr %57, align 8
  %59 = icmp eq i32 %58, 11
  br i1 %59, label %140, label %60

60:                                               ; preds = %50
  %61 = load ptr, ptr %6, align 8
  %62 = getelementptr inbounds nuw %struct.epan_column_info, ptr %61, i32 0, i32 2
  %63 = load ptr, ptr %62, align 8
  %64 = load i32, ptr %7, align 4
  %65 = sext i32 %64 to i64
  %66 = getelementptr %struct.col_item_t, ptr %63, i64 %65
  %67 = getelementptr inbounds nuw %struct.col_item_t, ptr %66, i32 0, i32 0
  %68 = load i32, ptr %67, align 8
  %69 = icmp eq i32 %68, 7
  br i1 %69, label %140, label %70

70:                                               ; preds = %60
  %71 = load ptr, ptr %6, align 8
  %72 = getelementptr inbounds nuw %struct.epan_column_info, ptr %71, i32 0, i32 2
  %73 = load ptr, ptr %72, align 8
  %74 = load i32, ptr %7, align 4
  %75 = sext i32 %74 to i64
  %76 = getelementptr %struct.col_item_t, ptr %73, i64 %75
  %77 = getelementptr inbounds nuw %struct.col_item_t, ptr %76, i32 0, i32 0
  %78 = load i32, ptr %77, align 8
  %79 = icmp eq i32 %78, 8
  br i1 %79, label %140, label %80

80:                                               ; preds = %70
  %81 = load ptr, ptr %6, align 8
  %82 = getelementptr inbounds nuw %struct.epan_column_info, ptr %81, i32 0, i32 2
  %83 = load ptr, ptr %82, align 8
  %84 = load i32, ptr %7, align 4
  %85 = sext i32 %84 to i64
  %86 = getelementptr %struct.col_item_t, ptr %83, i64 %85
  %87 = getelementptr inbounds nuw %struct.col_item_t, ptr %86, i32 0, i32 0
  %88 = load i32, ptr %87, align 8
  %89 = icmp eq i32 %88, 31
  br i1 %89, label %140, label %90

90:                                               ; preds = %80
  %91 = load ptr, ptr %6, align 8
  %92 = getelementptr inbounds nuw %struct.epan_column_info, ptr %91, i32 0, i32 2
  %93 = load ptr, ptr %92, align 8
  %94 = load i32, ptr %7, align 4
  %95 = sext i32 %94 to i64
  %96 = getelementptr %struct.col_item_t, ptr %93, i64 %95
  %97 = getelementptr inbounds nuw %struct.col_item_t, ptr %96, i32 0, i32 0
  %98 = load i32, ptr %97, align 8
  %99 = icmp eq i32 %98, 28
  br i1 %99, label %140, label %100

100:                                              ; preds = %90
  %101 = load ptr, ptr %6, align 8
  %102 = getelementptr inbounds nuw %struct.epan_column_info, ptr %101, i32 0, i32 2
  %103 = load ptr, ptr %102, align 8
  %104 = load i32, ptr %7, align 4
  %105 = sext i32 %104 to i64
  %106 = getelementptr %struct.col_item_t, ptr %103, i64 %105
  %107 = getelementptr inbounds nuw %struct.col_item_t, ptr %106, i32 0, i32 0
  %108 = load i32, ptr %107, align 8
  %109 = icmp eq i32 %108, 29
  br i1 %109, label %140, label %110

110:                                              ; preds = %100
  %111 = load ptr, ptr %6, align 8
  %112 = getelementptr inbounds nuw %struct.epan_column_info, ptr %111, i32 0, i32 2
  %113 = load ptr, ptr %112, align 8
  %114 = load i32, ptr %7, align 4
  %115 = sext i32 %114 to i64
  %116 = getelementptr %struct.col_item_t, ptr %113, i64 %115
  %117 = getelementptr inbounds nuw %struct.col_item_t, ptr %116, i32 0, i32 0
  %118 = load i32, ptr %117, align 8
  %119 = icmp eq i32 %118, 30
  br i1 %119, label %140, label %120

120:                                              ; preds = %110
  %121 = load ptr, ptr %6, align 8
  %122 = getelementptr inbounds nuw %struct.epan_column_info, ptr %121, i32 0, i32 2
  %123 = load ptr, ptr %122, align 8
  %124 = load i32, ptr %7, align 4
  %125 = sext i32 %124 to i64
  %126 = getelementptr %struct.col_item_t, ptr %123, i64 %125
  %127 = getelementptr inbounds nuw %struct.col_item_t, ptr %126, i32 0, i32 0
  %128 = load i32, ptr %127, align 8
  %129 = icmp eq i32 %128, 26
  br i1 %129, label %140, label %130

130:                                              ; preds = %120
  %131 = load ptr, ptr %6, align 8
  %132 = getelementptr inbounds nuw %struct.epan_column_info, ptr %131, i32 0, i32 2
  %133 = load ptr, ptr %132, align 8
  %134 = load i32, ptr %7, align 4
  %135 = sext i32 %134 to i64
  %136 = getelementptr %struct.col_item_t, ptr %133, i64 %135
  %137 = getelementptr inbounds nuw %struct.col_item_t, ptr %136, i32 0, i32 0
  %138 = load i32, ptr %137, align 8
  %139 = icmp eq i32 %138, 27
  br i1 %139, label %140, label %152

140:                                              ; preds = %130, %120, %110, %100, %90, %80, %70, %60, %50, %40, %30, %20
  %141 = load ptr, ptr %6, align 8
  %142 = getelementptr inbounds nuw %struct.epan_column_info, ptr %141, i32 0, i32 5
  %143 = getelementptr inbounds nuw %struct.col_expr_t, ptr %142, i32 0, i32 1
  %144 = load ptr, ptr %143, align 8
  %145 = load i32, ptr %7, align 4
  %146 = sext i32 %145 to i64
  %147 = getelementptr ptr, ptr %144, i64 %146
  %148 = load ptr, ptr %147, align 8
  %149 = call i64 @strlen(ptr noundef %148) #28
  %150 = icmp ne i64 %149, 0
  br i1 %150, label %151, label %152

151:                                              ; preds = %140
  store i1 true, ptr %4, align 1
  br label %174

152:                                              ; preds = %140, %130
  %153 = load ptr, ptr %6, align 8
  %154 = getelementptr inbounds nuw %struct.epan_column_info, ptr %153, i32 0, i32 2
  %155 = load ptr, ptr %154, align 8
  %156 = load i32, ptr %7, align 4
  %157 = sext i32 %156 to i64
  %158 = getelementptr %struct.col_item_t, ptr %155, i64 %157
  %159 = getelementptr inbounds nuw %struct.col_item_t, ptr %158, i32 0, i32 0
  %160 = load i32, ptr %159, align 8
  %161 = icmp eq i32 %160, 4
  br i1 %161, label %162, label %173

162:                                              ; preds = %152
  %163 = load ptr, ptr %6, align 8
  %164 = getelementptr inbounds nuw %struct.epan_column_info, ptr %163, i32 0, i32 2
  %165 = load ptr, ptr %164, align 8
  %166 = load i32, ptr %7, align 4
  %167 = sext i32 %166 to i64
  %168 = getelementptr %struct.col_item_t, ptr %165, i64 %167
  %169 = getelementptr inbounds nuw %struct.col_item_t, ptr %168, i32 0, i32 3
  %170 = load ptr, ptr %169, align 8
  %171 = icmp ne ptr %170, null
  br i1 %171, label %172, label %173

172:                                              ; preds = %162
  store i1 true, ptr %4, align 1
  br label %174

173:                                              ; preds = %162, %152
  store i1 false, ptr %4, align 1
  br label %174

174:                                              ; preds = %173, %172, %151, %19
  %175 = load i1, ptr %4, align 1
  ret i1 %175
}