; Function Attrs: mustprogress nofree norecurse nosync nounwind null_pointer_is_valid sspstrong willreturn memory(read, inaccessiblemem: none) uwtable
define noundef zeroext i1 @_ZN18AddressEditorFrame15isAddressColumnEP16epan_column_infoi(ptr noundef readnone align 8 captures(none) dereferenceable_or_null(72) %0, ptr noundef readonly captures(address_is_null) %1, i32 noundef %2) local_unnamed_addr #8 align 2 {
  %4 = icmp eq ptr %1, null
  %5 = icmp slt i32 %2, 0
  %or.cond = or i1 %4, %5
  br i1 %or.cond, label %23, label %6

6:                                                ; preds = %3
  %7 = getelementptr inbounds nuw i8, ptr %1, i64 8
  %8 = load i32, ptr %7, align 8
  %.not = icmp slt i32 %2, %8
  br i1 %.not, label %9, label %23

9:                                                ; preds = %6
  %10 = getelementptr inbounds nuw i8, ptr %1, i64 16
  %11 = load ptr, ptr %10, align 8
  %12 = zext nneg i32 %2 to i64
  %13 = getelementptr %struct.col_item_t, ptr %11, i64 %12
  %14 = load i32, ptr %13, align 8
  switch i32 %14, label %.thread [
    i32 37, label %15
    i32 39, label %15
    i32 40, label %15
    i32 11, label %15
    i32 7, label %15
    i32 8, label %15
    i32 31, label %15
    i32 28, label %15
    i32 29, label %15
    i32 30, label %15
    i32 26, label %15
    i32 27, label %15
    i32 4, label %20
  ]

15:                                               ; preds = %9, %9, %9, %9, %9, %9, %9, %9, %9, %9, %9, %9
  %16 = getelementptr inbounds nuw i8, ptr %1, i64 48
  %17 = load ptr, ptr %16, align 8
  %18 = getelementptr ptr, ptr %17, i64 %12
  %19 = load ptr, ptr %18, align 8
  %char0 = load i8, ptr %19, align 1
  %.not38 = icmp eq i8 %char0, 0
  br i1 %.not38, label %.thread, label %23

20:                                               ; preds = %9
  %21 = getelementptr inbounds nuw i8, ptr %13, i64 24
  %22 = load ptr, ptr %21, align 8
  %.not39 = icmp eq ptr %22, null
  br i1 %.not39, label %.thread, label %23

.thread:                                          ; preds = %9, %15, %20
  br label %23

23:                                               ; preds = %20, %15, %3, %6, %.thread
  %.0 = phi i1 [ false, %.thread ], [ false, %6 ], [ false, %3 ], [ true, %15 ], [ true, %20 ]
  ret i1 %.0
}